target datalayout = "e-m:e-p270:32:32-p271:32:32-p272:64:64-i64:64-i128:128-f80:128-n8:16:32:64-S128"
target triple = "x86_64-pc-linux-gnu"

%struct.pointf_s = type { double, double }
%struct.GVJ_s = type { ptr, ptr, ptr, ptr, ptr, ptr, i32, ptr, ptr, ptr, ptr, i64, i64, ptr, i32, %struct.gvplugin_active_render_s, %struct.gvplugin_active_device_s, %struct.gvplugin_active_loadimage_t, ptr, %struct.pointf_s, i8, ptr, i32, ptr, i8, ptr, i32, i32, i32, %struct.point, %struct.point, %struct.point, %struct.point, %struct.point, i32, %struct.boxf, %struct.pointf_s, %struct.boxf, %struct.boxf, %struct.pointf_s, %struct.pointf_s, double, i32, %struct.pointf_s, %struct.boxf, %struct.pointf_s, %struct.pointf_s, i32, i32, %struct.box, %struct.box, %struct.pointf_s, %struct.pointf_s, %struct.pointf_s, i8, i8, i8, i8, i8, i8, %struct.pointf_s, %struct.pointf_s, ptr, ptr, ptr, ptr, ptr, ptr, i64, ptr }
%struct.gvplugin_active_render_s = type { ptr, i32, ptr, ptr }
%struct.gvplugin_active_device_s = type { ptr, i32, ptr, ptr }
%struct.gvplugin_active_loadimage_t = type { ptr, i32, ptr }
%struct.point = type { i32, i32 }
%struct.boxf = type { %struct.pointf_s, %struct.pointf_s }
%struct.box = type { %struct.point, %struct.point }
%struct.obj_state_s = type { ptr, i32, %union.anon, i32, %struct.color_s, %struct.color_s, %struct.color_s, i32, double, i32, i32, double, ptr, double, double, double, ptr, ptr, ptr, ptr, ptr, ptr, ptr, ptr, ptr, ptr, ptr, ptr, ptr, ptr, ptr, ptr, ptr, i16, i32, i64, ptr, i64, ptr, ptr, i32, ptr, i32, ptr }
%union.anon = type { ptr }
%struct.color_s = type { %union.anon.0, i32 }
%union.anon.0 = type { [4 x double] }

@layerz = internal global i32 0, align 4
@z = internal global i32 0, align 4
@.str.29 = private unnamed_addr constant [36 x i8] c"    rotate   <%9.3f, %9.3f, %9.3f>\0A\00", align 1
@.str.30 = private unnamed_addr constant [37 x i8] c"    translate<%9.3f, %9.3f, %d.000>\0A\00", align 1
@.str.31 = private unnamed_addr constant [9 x i8] c"    %s}\0A\00", align 1
@.str.46 = private unnamed_addr constant [36 x i8] c"    scale    <%9.3f, %9.3f, %9.3f>\0A\00", align 1
@.str.49 = private unnamed_addr constant [32 x i8] c"sphere_sweep {\0A    %s\0A    %zu,\0A\00", align 1
@.str.50 = private unnamed_addr constant [14 x i8] c"linear_spline\00", align 1
@.str.51 = private unnamed_addr constant [33 x i8] c"    <%9.3f, %9.3f, %9.3f>, %.3f\0A\00", align 1
@.str.59 = private unnamed_addr constant [16 x i8] c"//*** polyline\0A\00", align 1
@.str.60 = private unnamed_addr constant [20 x i8] c"    tolerance 0.01\0A\00", align 1

; Function Attrs: nounwind uwtable
define internal void @pov_polyline(ptr noundef %0, ptr noundef %1, i64 noundef %2) #0 {
  %4 = alloca ptr, align 8
  %5 = alloca ptr, align 8
  %6 = alloca i64, align 8
  %7 = alloca ptr, align 8
  %8 = alloca i64, align 8
  store ptr %0, ptr %4, align 8, !tbaa !3
  store ptr %1, ptr %5, align 8, !tbaa !54
  store i64 %2, ptr %6, align 8, !tbaa !61
  %9 = load ptr, ptr %4, align 8, !tbaa !3
  %10 = call i32 @gvputs(ptr noundef %9, ptr noundef @.str.59)
  %11 = load i32, ptr @layerz, align 4, !tbaa !37
  %12 = sub nsw i32 %11, 6
  store i32 %12, ptr @z, align 4, !tbaa !37
  call void @llvm.lifetime.start.p0(i64 8, ptr %7) #14
  %13 = load ptr, ptr %4, align 8, !tbaa !3
  %14 = load ptr, ptr %4, align 8, !tbaa !3
  %15 = getelementptr inbounds nuw %struct.GVJ_s, ptr %14, i32 0, i32 4
  %16 = load ptr, ptr %15, align 8, !tbaa !8
  %17 = getelementptr inbounds nuw %struct.obj_state_s, ptr %16, i32 0, i32 4
  %18 = call ptr @pov_color_as_str(ptr noundef %13, ptr noundef byval(%struct.color_s) align 8 %17, float noundef 0.000000e+00)
  store ptr %18, ptr %7, align 8, !tbaa !38
  %19 = load ptr, ptr %4, align 8, !tbaa !3
  %20 = load i64, ptr %6, align 8, !tbaa !61
  call void (ptr, ptr, ...) @gvprintf(ptr noundef %19, ptr noundef @.str.49, ptr noundef @.str.50, i64 noundef %20)
  call void @llvm.lifetime.start.p0(i64 8, ptr %8) #14
  store i64 0, ptr %8, align 8, !tbaa !61
  br label %21

21:                                               ; preds = %53, %3
  %22 = load i64, ptr %8, align 8, !tbaa !61
  %23 = load i64, ptr %6, align 8, !tbaa !61
  %24 = icmp ult i64 %22, %23
  br i1 %24, label %26, label %25

25:                                               ; preds = %21
  call void @llvm.lifetime.end.p0(i64 8, ptr %8) #14
  br label %56

26:                                               ; preds = %21
  %27 = load ptr, ptr %4, align 8, !tbaa !3
  %28 = load ptr, ptr %5, align 8, !tbaa !54
  %29 = load i64, ptr %8, align 8, !tbaa !61
  %30 = getelementptr inbounds nuw %struct.pointf_s, ptr %28, i64 %29
  %31 = getelementptr inbounds nuw %struct.pointf_s, ptr %30, i32 0, i32 0
  %32 = load double, ptr %31, align 8, !tbaa !48
  %33 = load ptr, ptr %4, align 8, !tbaa !3
  %34 = getelementptr inbounds nuw %struct.GVJ_s, ptr %33, i32 0, i32 52
  %35 = getelementptr inbounds nuw %struct.pointf_s, ptr %34, i32 0, i32 0
  %36 = load double, ptr %35, align 8, !tbaa !50
  %37 = fadd double %32, %36
  %38 = load ptr, ptr %5, align 8, !tbaa !54
  %39 = load i64, ptr %8, align 8, !tbaa !61
  %40 = getelementptr inbounds nuw %struct.pointf_s, ptr %38, i64 %39
  %41 = getelementptr inbounds nuw %struct.pointf_s, ptr %40, i32 0, i32 1
  %42 = load double, ptr %41, align 8, !tbaa !51
  %43 = load ptr, ptr %4, align 8, !tbaa !3
  %44 = getelementptr inbounds nuw %struct.GVJ_s, ptr %43, i32 0, i32 52
  %45 = getelementptr inbounds nuw %struct.pointf_s, ptr %44, i32 0, i32 1
  %46 = load double, ptr %45, align 8, !tbaa !52
  %47 = fadd double %42, %46
  %48 = load ptr, ptr %4, align 8, !tbaa !3
  %49 = getelementptr inbounds nuw %struct.GVJ_s, ptr %48, i32 0, i32 4
  %50 = load ptr, ptr %49, align 8, !tbaa !8
  %51 = getelementptr inbounds nuw %struct.obj_state_s, ptr %50, i32 0, i32 11
  %52 = load double, ptr %51, align 8, !tbaa !56
  call void (ptr, ptr, ...) @gvprintf(ptr noundef %27, ptr noundef @.str.51, double noundef %37, double noundef %47, double noundef 0.000000e+00, double noundef %52)
  br label %53

53:                                               ; preds = %26
  %54 = load i64, ptr %8, align 8, !tbaa !61
  %55 = add i64 %54, 1
  store i64 %55, ptr %8, align 8, !tbaa !61
  br label %21, !llvm.loop !66

56:                                               ; preds = %25
  %57 = load ptr, ptr %4, align 8, !tbaa !3
  %58 = call i32 @gvputs(ptr noundef %57, ptr noundef @.str.60)
  %59 = load ptr, ptr %4, align 8, !tbaa !3
  %60 = load ptr, ptr %4, align 8, !tbaa !3
  %61 = getelementptr inbounds nuw %struct.GVJ_s, ptr %60, i32 0, i32 51
  %62 = getelementptr inbounds nuw %struct.pointf_s, ptr %61, i32 0, i32 0
  %63 = load double, ptr %62, align 8, !tbaa !33
  %64 = load ptr, ptr %4, align 8, !tbaa !3
  %65 = getelementptr inbounds nuw %struct.GVJ_s, ptr %64, i32 0, i32 51
  %66 = getelementptr inbounds nuw %struct.pointf_s, ptr %65, i32 0, i32 1
  %67 = load double, ptr %66, align 8, !tbaa !36
  call void (ptr, ptr, ...) @gvprintf(ptr noundef %59, ptr noundef @.str.46, double noundef %63, double noundef %67, double noundef 1.000000e+00)
  %68 = load ptr, ptr %4, align 8, !tbaa !3
  %69 = load ptr, ptr %4, align 8, !tbaa !3
  %70 = getelementptr inbounds nuw %struct.GVJ_s, ptr %69, i32 0, i32 42
  %71 = load i32, ptr %70, align 8, !tbaa !53
  %72 = sitofp i32 %71 to float
  %73 = fpext float %72 to double
  call void (ptr, ptr, ...) @gvprintf(ptr noundef %68, ptr noundef @.str.29, double noundef 0.000000e+00, double noundef 0.000000e+00, double noundef %73)
  %74 = load ptr, ptr %4, align 8, !tbaa !3
  %75 = load i32, ptr @z, align 4, !tbaa !37
  call void (ptr, ptr, ...) @gvprintf(ptr noundef %74, ptr noundef @.str.30, double noundef 0.000000e+00, double noundef 0.000000e+00, i32 noundef %75)
  %76 = load ptr, ptr %4, align 8, !tbaa !3
  %77 = load ptr, ptr %7, align 8, !tbaa !38
  call void (ptr, ptr, ...) @gvprintf(ptr noundef %76, ptr noundef @.str.31, ptr noundef %77)
  %78 = load ptr, ptr %7, align 8, !tbaa !38
  call void @free(ptr noundef %78) #14
  call void @llvm.lifetime.end.p0(i64 8, ptr %7) #14
  ret void
}