; Function Attrs: nounwind uwtable
define internal void @pov_polyline(ptr noundef %0, ptr noundef readonly captures(none) %1, i64 noundef %2) #0 {
  %4 = tail call i32 @gvputs(ptr noundef %0, ptr noundef nonnull @.str.59) #18
  %5 = load i32, ptr @layerz, align 4, !tbaa !35
  %6 = add nsw i32 %5, -6
  store i32 %6, ptr @z, align 4, !tbaa !35
  %7 = getelementptr inbounds nuw i8, ptr %0, i64 32
  %8 = load ptr, ptr %7, align 8, !tbaa !3
  %9 = getelementptr inbounds nuw i8, ptr %8, i64 32
  %10 = tail call fastcc ptr @pov_color_as_str(ptr noundef nonnull byval(%struct.color_s) align 8 %9, float noundef 0.000000e+00)
  tail call void (ptr, ptr, ...) @gvprintf(ptr noundef %0, ptr noundef nonnull @.str.49, ptr noundef nonnull @.str.50, i64 noundef %2) #18
  %.not = icmp eq i64 %2, 0
  br i1 %.not, label %._crit_edge, label %.lr.ph

.lr.ph:                                           ; preds = %3
  %11 = getelementptr inbounds nuw i8, ptr %0, i64 632
  %12 = getelementptr inbounds nuw i8, ptr %0, i64 640
  br label %23

._crit_edge:                                      ; preds = %23, %3
  %13 = tail call i32 @gvputs(ptr noundef nonnull %0, ptr noundef nonnull @.str.60) #18
  %14 = getelementptr inbounds nuw i8, ptr %0, i64 616
  %15 = load double, ptr %14, align 8, !tbaa !32
  %16 = getelementptr inbounds nuw i8, ptr %0, i64 624
  %17 = load double, ptr %16, align 8, !tbaa !34
  tail call void (ptr, ptr, ...) @gvprintf(ptr noundef nonnull %0, ptr noundef nonnull @.str.46, double noundef %15, double noundef %17, double noundef 1.000000e+00) #18
  %18 = getelementptr inbounds nuw i8, ptr %0, i64 488
  %19 = load i32, ptr %18, align 8, !tbaa !47
  %20 = sitofp i32 %19 to float
  %21 = fpext float %20 to double
  tail call void (ptr, ptr, ...) @gvprintf(ptr noundef nonnull %0, ptr noundef nonnull @.str.29, double noundef 0.000000e+00, double noundef 0.000000e+00, double noundef %21) #18
  %22 = load i32, ptr @z, align 4, !tbaa !35
  tail call void (ptr, ptr, ...) @gvprintf(ptr noundef nonnull %0, ptr noundef nonnull @.str.30, double noundef 0.000000e+00, double noundef 0.000000e+00, i32 noundef %22) #18
  tail call void (ptr, ptr, ...) @gvprintf(ptr noundef nonnull %0, ptr noundef nonnull @.str.31, ptr noundef %10) #18
  tail call void @free(ptr noundef %10) #18
  ret void

23:                                               ; preds = %.lr.ph, %23
  %.025 = phi i64 [ 0, %.lr.ph ], [ %35, %23 ]
  %24 = getelementptr inbounds nuw %struct.pointf_s, ptr %1, i64 %.025
  %25 = load double, ptr %24, align 8, !tbaa !48
  %26 = load double, ptr %11, align 8, !tbaa !45
  %27 = fadd double %25, %26
  %28 = getelementptr inbounds nuw i8, ptr %24, i64 8
  %29 = load double, ptr %28, align 8, !tbaa !49
  %30 = load double, ptr %12, align 8, !tbaa !46
  %31 = fadd double %29, %30
  %32 = load ptr, ptr %7, align 8, !tbaa !3
  %33 = getelementptr inbounds nuw i8, ptr %32, i64 176
  %34 = load double, ptr %33, align 8, !tbaa !50
  tail call void (ptr, ptr, ...) @gvprintf(ptr noundef nonnull %0, ptr noundef nonnull @.str.51, double noundef %27, double noundef %31, double noundef 0.000000e+00, double noundef %34) #18
  %35 = add nuw i64 %.025, 1
  %exitcond.not = icmp eq i64 %35, %2
  br i1 %exitcond.not, label %._crit_edge, label %23, !llvm.loop !60
}